; Function Attrs: nofree norecurse nosync nounwind memory(readwrite, inaccessiblemem: none) uwtable
define void @Llb_MtrAddColumn(ptr noundef readonly captures(none) %0, ptr noundef %1) local_unnamed_addr #10 {
  %3 = load i32, ptr %1, align 8, !tbaa !46
  %4 = getelementptr inbounds nuw i8, ptr %0, i64 24
  %5 = load ptr, ptr %4, align 8, !tbaa !41
  %6 = sext i32 %3 to i64
  %7 = getelementptr inbounds ptr, ptr %5, i64 %6
  store ptr %1, ptr %7, align 8, !tbaa !50
  %8 = getelementptr inbounds nuw i8, ptr %1, i64 8
  %9 = load ptr, ptr %8, align 8, !tbaa !51
  %10 = getelementptr i8, ptr %9, i64 4
  %.val40 = load i32, ptr %10, align 4, !tbaa !52
  %11 = icmp sgt i32 %.val40, 0
  br i1 %11, label %.lr.ph, label %.critedge.preheader

.lr.ph:                                           ; preds = %2
  %12 = getelementptr inbounds nuw i8, ptr %1, i64 32
  %13 = getelementptr inbounds nuw i8, ptr %0, i64 40
  %14 = getelementptr inbounds nuw i8, ptr %0, i64 16
  %15 = getelementptr inbounds nuw i8, ptr %0, i64 32
  br label %24

.critedge.preheader:                              ; preds = %24, %2
  %16 = getelementptr inbounds nuw i8, ptr %1, i64 16
  %17 = load ptr, ptr %16, align 8, !tbaa !54
  %18 = getelementptr i8, ptr %17, i64 4
  %.val3342 = load i32, ptr %18, align 4, !tbaa !52
  %19 = icmp sgt i32 %.val3342, 0
  br i1 %19, label %.lr.ph44, label %.critedge2

.lr.ph44:                                         ; preds = %.critedge.preheader
  %20 = getelementptr inbounds nuw i8, ptr %1, i64 32
  %21 = getelementptr inbounds nuw i8, ptr %0, i64 40
  %22 = getelementptr inbounds nuw i8, ptr %0, i64 16
  %23 = getelementptr inbounds nuw i8, ptr %0, i64 32
  br label %.critedge

24:                                               ; preds = %.lr.ph, %24
  %indvars.iv = phi i64 [ 0, %.lr.ph ], [ %indvars.iv.next, %24 ]
  %25 = phi ptr [ %9, %.lr.ph ], [ %50, %24 ]
  %26 = getelementptr i8, ptr %25, i64 8
  %.val34 = load ptr, ptr %26, align 8, !tbaa !55
  %27 = getelementptr inbounds nuw ptr, ptr %.val34, i64 %indvars.iv
  %28 = load ptr, ptr %27, align 8, !tbaa !56
  %29 = load ptr, ptr %12, align 8, !tbaa !57
  %30 = getelementptr inbounds nuw i8, ptr %29, i64 48
  %31 = load ptr, ptr %30, align 8, !tbaa !58
  %32 = getelementptr i8, ptr %28, i64 36
  %.val36 = load i32, ptr %32, align 4, !tbaa !65
  %33 = getelementptr i8, ptr %31, i64 8
  %.val38 = load ptr, ptr %33, align 8, !tbaa !68
  %34 = sext i32 %.val36 to i64
  %35 = getelementptr inbounds i32, ptr %.val38, i64 %34
  %36 = load i32, ptr %35, align 4, !tbaa !15
  %37 = load ptr, ptr %13, align 8, !tbaa !19
  %38 = getelementptr inbounds ptr, ptr %37, i64 %6
  %39 = load ptr, ptr %38, align 8, !tbaa !20
  %40 = sext i32 %36 to i64
  %41 = getelementptr inbounds i8, ptr %39, i64 %40
  store i8 1, ptr %41, align 1, !tbaa !21
  %42 = load ptr, ptr %14, align 8, !tbaa !40
  %43 = getelementptr inbounds i32, ptr %42, i64 %6
  %44 = load i32, ptr %43, align 4, !tbaa !15
  %45 = add nsw i32 %44, 1
  store i32 %45, ptr %43, align 4, !tbaa !15
  %46 = load ptr, ptr %15, align 8, !tbaa !26
  %47 = getelementptr inbounds i32, ptr %46, i64 %40
  %48 = load i32, ptr %47, align 4, !tbaa !15
  %49 = add nsw i32 %48, 1
  store i32 %49, ptr %47, align 4, !tbaa !15
  %indvars.iv.next = add nuw nsw i64 %indvars.iv, 1
  %50 = load ptr, ptr %8, align 8, !tbaa !51
  %51 = getelementptr i8, ptr %50, i64 4
  %.val = load i32, ptr %51, align 4, !tbaa !52
  %52 = sext i32 %.val to i64
  %53 = icmp slt i64 %indvars.iv.next, %52
  br i1 %53, label %24, label %.critedge.preheader, !llvm.loop !70

.critedge:                                        ; preds = %.lr.ph44, %.critedge
  %indvars.iv46 = phi i64 [ 0, %.lr.ph44 ], [ %indvars.iv.next47, %.critedge ]
  %54 = phi ptr [ %17, %.lr.ph44 ], [ %79, %.critedge ]
  %55 = getelementptr i8, ptr %54, i64 8
  %.val35 = load ptr, ptr %55, align 8, !tbaa !55
  %56 = getelementptr inbounds nuw ptr, ptr %.val35, i64 %indvars.iv46
  %57 = load ptr, ptr %56, align 8, !tbaa !56
  %58 = load ptr, ptr %20, align 8, !tbaa !57
  %59 = getelementptr inbounds nuw i8, ptr %58, i64 48
  %60 = load ptr, ptr %59, align 8, !tbaa !58
  %61 = getelementptr i8, ptr %57, i64 36
  %.val37 = load i32, ptr %61, align 4, !tbaa !65
  %62 = getelementptr i8, ptr %60, i64 8
  %.val39 = load ptr, ptr %62, align 8, !tbaa !68
  %63 = sext i32 %.val37 to i64
  %64 = getelementptr inbounds i32, ptr %.val39, i64 %63
  %65 = load i32, ptr %64, align 4, !tbaa !15
  %66 = load ptr, ptr %21, align 8, !tbaa !19
  %67 = getelementptr inbounds ptr, ptr %66, i64 %6
  %68 = load ptr, ptr %67, align 8, !tbaa !20
  %69 = sext i32 %65 to i64
  %70 = getelementptr inbounds i8, ptr %68, i64 %69
  store i8 1, ptr %70, align 1, !tbaa !21
  %71 = load ptr, ptr %22, align 8, !tbaa !40
  %72 = getelementptr inbounds i32, ptr %71, i64 %6
  %73 = load i32, ptr %72, align 4, !tbaa !15
  %74 = add nsw i32 %73, 1
  store i32 %74, ptr %72, align 4, !tbaa !15
  %75 = load ptr, ptr %23, align 8, !tbaa !26
  %76 = getelementptr inbounds i32, ptr %75, i64 %69
  %77 = load i32, ptr %76, align 4, !tbaa !15
  %78 = add nsw i32 %77, 1
  store i32 %78, ptr %76, align 4, !tbaa !15
  %indvars.iv.next47 = add nuw nsw i64 %indvars.iv46, 1
  %79 = load ptr, ptr %16, align 8, !tbaa !54
  %80 = getelementptr i8, ptr %79, i64 4
  %.val33 = load i32, ptr %80, align 4, !tbaa !52
  %81 = sext i32 %.val33 to i64
  %82 = icmp slt i64 %indvars.iv.next47, %81
  br i1 %82, label %.critedge, label %.critedge2, !llvm.loop !71

.critedge2:                                       ; preds = %.critedge, %.critedge.preheader
  ret void
}